; Function Attrs: mustprogress uwtable
define void @_ZN2cv3MatC2EiiiRKNS_7Scalar_IdEE(ptr noundef nonnull align 8 dereferenceable(96) initializes((0, 64)) %0, i32 noundef %1, i32 noundef %2, i32 noundef %3, ptr noundef nonnull align 8 dereferenceable(32) %4) unnamed_addr #1 align 2 {
_ZN2cv3Mat6createEiii.exit:
  %5 = alloca [2 x i32], align 4
  store i32 1124007936, ptr %0, align 8, !tbaa !61
  %6 = getelementptr inbounds nuw i8, ptr %0, i64 4
  %7 = getelementptr inbounds nuw i8, ptr %0, i64 8
  %8 = getelementptr inbounds nuw i8, ptr %0, i64 64
  tail call void @llvm.memset.p0.i64(ptr noundef nonnull align 4 dereferenceable(60) %6, i8 0, i64 60, i1 false)
  store ptr %7, ptr %8, align 8, !tbaa !49
  %9 = getelementptr inbounds nuw i8, ptr %0, i64 72
  %10 = getelementptr inbounds nuw i8, ptr %0, i64 80
  store ptr %10, ptr %9, align 8, !tbaa !63
  %11 = and i32 %3, 4095
  tail call void @llvm.memset.p0.i64(ptr noundef nonnull align 8 dereferenceable(16) %10, i8 0, i64 16, i1 false)
  call void @llvm.lifetime.start.p0(i64 8, ptr nonnull %5) #24
  store i32 %1, ptr %5, align 4, !tbaa !23
  %12 = getelementptr inbounds nuw i8, ptr %5, i64 4
  store i32 %2, ptr %12, align 4, !tbaa !23
  call void @_ZN2cv3Mat6createEiPKii(ptr noundef nonnull align 8 dereferenceable(96) %0, i32 noundef 2, ptr noundef nonnull %5, i32 noundef %11)
  call void @llvm.lifetime.end.p0(i64 8, ptr nonnull %5) #24
  %13 = call noundef nonnull align 8 dereferenceable(96) ptr @_ZN2cv3MataSERKNS_7Scalar_IdEE(ptr noundef nonnull align 8 dereferenceable(96) %0, ptr noundef nonnull align 8 dereferenceable(32) %4)
  ret void
}